; ModuleID = '24/572.c'
source_filename = "24/572.c"
target datalayout = "e-m:e-p270:32:32-p271:32:32-p272:64:64-i64:64-f80:128-n8:16:32:64-S128"
target triple = "x86_64-pc-linux-gnu"

%struct.word = type { [50 x i8] }

@.str = private unnamed_addr constant [4 x i8] c"%s\0A\00", align 1

; Function Attrs: noinline nounwind uwtable
define dso_local i32 @main() #0 {
  %1 = alloca i32, align 4
  %2 = alloca [50 x %struct.word], align 16
  %3 = alloca i32, align 4
  %4 = alloca i32, align 4
  %5 = alloca [50 x i32], align 16
  %6 = alloca [2600 x i8], align 16
  %7 = alloca i8*, align 8
  %8 = alloca i8*, align 8
  %9 = alloca i8*, align 8
  %10 = alloca i32, align 4
  %11 = alloca i32, align 4
  store i32 0, i32* %1, align 4
  %12 = getelementptr inbounds [2600 x i8], [2600 x i8]* %6, i64 0, i64 0
  %13 = call i32 (i8*, ...) bitcast (i32 (...)* @gets to i32 (i8*, ...)*)(i8* %12)
  %14 = getelementptr inbounds [2600 x i8], [2600 x i8]* %6, i64 0, i64 0
  store i8* %14, i8** %7, align 8
  br label %15

15:                                               ; preds = %29, %0
  %16 = load i8*, i8** %7, align 8
  %17 = load i8, i8* %16, align 1
  %18 = sext i8 %17 to i32
  %19 = icmp ne i32 %18, 0
  br i1 %19, label %20, label %32

20:                                               ; preds = %15
  %21 = load i8*, i8** %7, align 8
  %22 = load i8, i8* %21, align 1
  %23 = sext i8 %22 to i32
  %24 = icmp eq i32 %23, 32
  br i1 %24, label %25, label %28

25:                                               ; preds = %20
  %26 = load i32, i32* %4, align 4
  %27 = add nsw i32 %26, 1
  store i32 %27, i32* %4, align 4
  br label %28

28:                                               ; preds = %25, %20
  br label %29

29:                                               ; preds = %28
  %30 = load i8*, i8** %7, align 8
  %31 = getelementptr inbounds i8, i8* %30, i32 1
  store i8* %31, i8** %7, align 8
  br label %15

32:                                               ; preds = %15
  %33 = load i32, i32* %4, align 4
  %34 = add nsw i32 %33, 1
  store i32 %34, i32* %4, align 4
  %35 = getelementptr inbounds [2600 x i8], [2600 x i8]* %6, i64 0, i64 0
  store i8* %35, i8** %8, align 8
  store i32 0, i32* %3, align 4
  br label %36

36:                                               ; preds = %78, %32
  %37 = load i32, i32* %3, align 4
  %38 = load i32, i32* %4, align 4
  %39 = icmp slt i32 %37, %38
  br i1 %39, label %40, label %81

40:                                               ; preds = %36
  %41 = load i32, i32* %3, align 4
  %42 = sext i32 %41 to i64
  %43 = getelementptr inbounds [50 x %struct.word], [50 x %struct.word]* %2, i64 0, i64 %42
  %44 = getelementptr inbounds %struct.word, %struct.word* %43, i32 0, i32 0
  %45 = getelementptr inbounds [50 x i8], [50 x i8]* %44, i64 0, i64 0
  store i8* %45, i8** %9, align 8
  br label %46

46:                                               ; preds = %62, %40
  %47 = load i8*, i8** %8, align 8
  %48 = load i8, i8* %47, align 1
  %49 = sext i8 %48 to i32
  %50 = icmp ne i32 %49, 32
  br i1 %50, label %51, label %56

51:                                               ; preds = %46
  %52 = load i8*, i8** %8, align 8
  %53 = load i8, i8* %52, align 1
  %54 = sext i8 %53 to i32
  %55 = icmp ne i32 %54, 0
  br label %56

56:                                               ; preds = %51, %46
  %57 = phi i1 [ false, %46 ], [ %55, %51 ]
  br i1 %57, label %58, label %67

58:                                               ; preds = %56
  %59 = load i8*, i8** %8, align 8
  %60 = load i8, i8* %59, align 1
  %61 = load i8*, i8** %9, align 8
  store i8 %60, i8* %61, align 1
  br label %62

62:                                               ; preds = %58
  %63 = load i8*, i8** %8, align 8
  %64 = getelementptr inbounds i8, i8* %63, i32 1
  store i8* %64, i8** %8, align 8
  %65 = load i8*, i8** %9, align 8
  %66 = getelementptr inbounds i8, i8* %65, i32 1
  store i8* %66, i8** %9, align 8
  br label %46

67:                                               ; preds = %56
  %68 = load i8*, i8** %9, align 8
  store i8 0, i8* %68, align 1
  %69 = load i8*, i8** %8, align 8
  %70 = load i8, i8* %69, align 1
  %71 = sext i8 %70 to i32
  %72 = icmp ne i32 %71, 0
  br i1 %72, label %73, label %76

73:                                               ; preds = %67
  %74 = load i8*, i8** %8, align 8
  %75 = getelementptr inbounds i8, i8* %74, i32 1
  store i8* %75, i8** %8, align 8
  br label %77

76:                                               ; preds = %67
  br label %81

77:                                               ; preds = %73
  br label %78

78:                                               ; preds = %77
  %79 = load i32, i32* %3, align 4
  %80 = add nsw i32 %79, 1
  store i32 %80, i32* %3, align 4
  br label %36

81:                                               ; preds = %76, %36
  store i32 0, i32* %3, align 4
  br label %82

82:                                               ; preds = %97, %81
  %83 = load i32, i32* %3, align 4
  %84 = load i32, i32* %4, align 4
  %85 = icmp slt i32 %83, %84
  br i1 %85, label %86, label %100

86:                                               ; preds = %82
  %87 = load i32, i32* %3, align 4
  %88 = sext i32 %87 to i64
  %89 = getelementptr inbounds [50 x %struct.word], [50 x %struct.word]* %2, i64 0, i64 %88
  %90 = getelementptr inbounds %struct.word, %struct.word* %89, i32 0, i32 0
  %91 = getelementptr inbounds [50 x i8], [50 x i8]* %90, i64 0, i64 0
  %92 = call i64 @strlen(i8* %91) #3
  %93 = trunc i64 %92 to i32
  %94 = load i32, i32* %3, align 4
  %95 = sext i32 %94 to i64
  %96 = getelementptr inbounds [50 x i32], [50 x i32]* %5, i64 0, i64 %95
  store i32 %93, i32* %96, align 4
  br label %97

97:                                               ; preds = %86
  %98 = load i32, i32* %3, align 4
  %99 = add nsw i32 %98, 1
  store i32 %99, i32* %3, align 4
  br label %82

100:                                              ; preds = %82
  store i32 0, i32* %10, align 4
  store i32 50, i32* %11, align 4
  store i32 0, i32* %3, align 4
  br label %101

101:                                              ; preds = %130, %100
  %102 = load i32, i32* %3, align 4
  %103 = load i32, i32* %4, align 4
  %104 = icmp slt i32 %102, %103
  br i1 %104, label %105, label %133

105:                                              ; preds = %101
  %106 = load i32, i32* %3, align 4
  %107 = sext i32 %106 to i64
  %108 = getelementptr inbounds [50 x i32], [50 x i32]* %5, i64 0, i64 %107
  %109 = load i32, i32* %108, align 4
  %110 = load i32, i32* %10, align 4
  %111 = icmp sgt i32 %109, %110
  br i1 %111, label %112, label %117

112:                                              ; preds = %105
  %113 = load i32, i32* %3, align 4
  %114 = sext i32 %113 to i64
  %115 = getelementptr inbounds [50 x i32], [50 x i32]* %5, i64 0, i64 %114
  %116 = load i32, i32* %115, align 4
  store i32 %116, i32* %10, align 4
  br label %117

117:                                              ; preds = %112, %105
  %118 = load i32, i32* %3, align 4
  %119 = sext i32 %118 to i64
  %120 = getelementptr inbounds [50 x i32], [50 x i32]* %5, i64 0, i64 %119
  %121 = load i32, i32* %120, align 4
  %122 = load i32, i32* %11, align 4
  %123 = icmp slt i32 %121, %122
  br i1 %123, label %124, label %129

124:                                              ; preds = %117
  %125 = load i32, i32* %3, align 4
  %126 = sext i32 %125 to i64
  %127 = getelementptr inbounds [50 x i32], [50 x i32]* %5, i64 0, i64 %126
  %128 = load i32, i32* %127, align 4
  store i32 %128, i32* %11, align 4
  br label %129

129:                                              ; preds = %124, %117
  br label %130

130:                                              ; preds = %129
  %131 = load i32, i32* %3, align 4
  %132 = add nsw i32 %131, 1
  store i32 %132, i32* %3, align 4
  br label %101

133:                                              ; preds = %101
  store i32 0, i32* %3, align 4
  br label %134

134:                                              ; preds = %153, %133
  %135 = load i32, i32* %3, align 4
  %136 = load i32, i32* %4, align 4
  %137 = icmp slt i32 %135, %136
  br i1 %137, label %138, label %156

138:                                              ; preds = %134
  %139 = load i32, i32* %3, align 4
  %140 = sext i32 %139 to i64
  %141 = getelementptr inbounds [50 x i32], [50 x i32]* %5, i64 0, i64 %140
  %142 = load i32, i32* %141, align 4
  %143 = load i32, i32* %10, align 4
  %144 = icmp eq i32 %142, %143
  br i1 %144, label %145, label %152

145:                                              ; preds = %138
  %146 = load i32, i32* %3, align 4
  %147 = sext i32 %146 to i64
  %148 = getelementptr inbounds [50 x %struct.word], [50 x %struct.word]* %2, i64 0, i64 %147
  %149 = getelementptr inbounds %struct.word, %struct.word* %148, i32 0, i32 0
  %150 = getelementptr inbounds [50 x i8], [50 x i8]* %149, i64 0, i64 0
  %151 = call i32 (i8*, ...) @printf(i8* getelementptr inbounds ([4 x i8], [4 x i8]* @.str, i64 0, i64 0), i8* %150)
  br label %156

152:                                              ; preds = %138
  br label %153

153:                                              ; preds = %152
  %154 = load i32, i32* %3, align 4
  %155 = add nsw i32 %154, 1
  store i32 %155, i32* %3, align 4
  br label %134

156:                                              ; preds = %145, %134
  store i32 0, i32* %3, align 4
  br label %157

157:                                              ; preds = %176, %156
  %158 = load i32, i32* %3, align 4
  %159 = load i32, i32* %4, align 4
  %160 = icmp slt i32 %158, %159
  br i1 %160, label %161, label %179

161:                                              ; preds = %157
  %162 = load i32, i32* %3, align 4
  %163 = sext i32 %162 to i64
  %164 = getelementptr inbounds [50 x i32], [50 x i32]* %5, i64 0, i64 %163
  %165 = load i32, i32* %164, align 4
  %166 = load i32, i32* %11, align 4
  %167 = icmp eq i32 %165, %166
  br i1 %167, label %168, label %175

168:                                              ; preds = %161
  %169 = load i32, i32* %3, align 4
  %170 = sext i32 %169 to i64
  %171 = getelementptr inbounds [50 x %struct.word], [50 x %struct.word]* %2, i64 0, i64 %170
  %172 = getelementptr inbounds %struct.word, %struct.word* %171, i32 0, i32 0
  %173 = getelementptr inbounds [50 x i8], [50 x i8]* %172, i64 0, i64 0
  %174 = call i32 (i8*, ...) @printf(i8* getelementptr inbounds ([4 x i8], [4 x i8]* @.str, i64 0, i64 0), i8* %173)
  br label %179

175:                                              ; preds = %161
  br label %176

176:                                              ; preds = %175
  %177 = load i32, i32* %3, align 4
  %178 = add nsw i32 %177, 1
  store i32 %178, i32* %3, align 4
  br label %157

179:                                              ; preds = %168, %157
  ret i32 0
}

declare dso_local i32 @gets(...) #1

; Function Attrs: nounwind readonly
declare dso_local i64 @strlen(i8*) #2

declare dso_local i32 @printf(i8*, ...) #1


!llvm.module.flags = !{!0}
!llvm.ident = !{!1}

!0 = !{i32 1, !"wchar_size", i32 4}
!1 = !{!"clang version 10.0.0-4ubuntu1 "}
